target datalayout = "e-m:e-p270:32:32-p271:32:32-p272:64:64-i64:64-i128:128-f80:128-n8:16:32:64-S128"
target triple = "x86_64-pc-linux-gnu"

%struct.Wlc_Ntk_t_ = type { ptr, ptr, %struct.Vec_Int_t_, %struct.Vec_Int_t_, %struct.Vec_Int_t_, %struct.Vec_Int_t_, %struct.Vec_Int_t_, %struct.Vec_Int_t_, ptr, ptr, ptr, [60 x i32], [60 x i32], i32, i32, i32, i32, i32, ptr, i32, i32, ptr, ptr, ptr, ptr, ptr, %struct.Vec_Int_t_, %struct.Vec_Int_t_, i32, %struct.Vec_Int_t_, %struct.Vec_Int_t_, %struct.Vec_Int_t_, %struct.Vec_Int_t_, %struct.Vec_Int_t_, %struct.Vec_Int_t_ }
%struct.Vec_Int_t_ = type { i32, i32, ptr }
%struct.Wlc_Obj_t_ = type { i16, i32, i32, i32, %union.anon }
%union.anon = type { [1 x ptr] }

; Function Attrs: nounwind uwtable
define internal i32 @Wlc_ObjHasArray(ptr noundef %0) #0 {
  %2 = alloca ptr, align 8
  store ptr %0, ptr %2, align 8
  %3 = load ptr, ptr %2, align 8
  %4 = getelementptr inbounds %struct.Wlc_Obj_t_, ptr %3, i32 0, i32 1
  %5 = load i32, ptr %4, align 4
  %6 = icmp ugt i32 %5, 2
  br i1 %6, label %19, label %7

7:                                                ; preds = %1
  %8 = load ptr, ptr %2, align 8
  %9 = load i16, ptr %8, align 8
  %10 = and i16 %9, 63
  %11 = zext i16 %10 to i32
  %12 = icmp eq i32 %11, 6
  br i1 %12, label %19, label %13

13:                                               ; preds = %7
  %14 = load ptr, ptr %2, align 8
  %15 = load i16, ptr %14, align 8
  %16 = and i16 %15, 63
  %17 = zext i16 %16 to i32
  %18 = icmp eq i32 %17, 22
  br label %19

19:                                               ; preds = %13, %7, %1
  %20 = phi i1 [ true, %7 ], [ true, %1 ], [ %18, %13 ]
  %21 = zext i1 %20 to i32
  ret i32 %21
}

; Function Attrs: nounwind uwtable
define internal i32 @Vec_IntEntry(ptr noundef %0, i32 noundef %1) #0 {
  %3 = alloca ptr, align 8
  %4 = alloca i32, align 4
  store ptr %0, ptr %3, align 8
  store i32 %1, ptr %4, align 4
  %5 = load ptr, ptr %3, align 8
  %6 = getelementptr inbounds %struct.Vec_Int_t_, ptr %5, i32 0, i32 2
  %7 = load ptr, ptr %6, align 8
  %8 = load i32, ptr %4, align 4
  %9 = sext i32 %8 to i64
  %10 = getelementptr inbounds i32, ptr %7, i64 %9
  %11 = load i32, ptr %10, align 4
  ret i32 %11
}

; Function Attrs: nounwind uwtable
define internal ptr @Wlc_ObjFanins(ptr noundef %0) #0 {
  %2 = alloca ptr, align 8
  store ptr %0, ptr %2, align 8
  %3 = load ptr, ptr %2, align 8
  %4 = call i32 @Wlc_ObjHasArray(ptr noundef %3)
  %5 = icmp ne i32 %4, 0
  br i1 %5, label %6, label %11

6:                                                ; preds = %1
  %7 = load ptr, ptr %2, align 8
  %8 = getelementptr inbounds %struct.Wlc_Obj_t_, ptr %7, i32 0, i32 4
  %9 = getelementptr inbounds [1 x ptr], ptr %8, i64 0, i64 0
  %10 = load ptr, ptr %9, align 8
  br label %15

11:                                               ; preds = %1
  %12 = load ptr, ptr %2, align 8
  %13 = getelementptr inbounds %struct.Wlc_Obj_t_, ptr %12, i32 0, i32 4
  %14 = getelementptr inbounds [2 x i32], ptr %13, i64 0, i64 0
  br label %15

15:                                               ; preds = %11, %6
  %16 = phi ptr [ %10, %6 ], [ %14, %11 ]
  ret ptr %16
}

; Function Attrs: nounwind uwtable
define internal void @Vec_IntWriteEntry(ptr noundef %0, i32 noundef %1, i32 noundef %2) #0 {
  %4 = alloca ptr, align 8
  %5 = alloca i32, align 4
  %6 = alloca i32, align 4
  store ptr %0, ptr %4, align 8
  store i32 %1, ptr %5, align 4
  store i32 %2, ptr %6, align 4
  %7 = load i32, ptr %6, align 4
  %8 = load ptr, ptr %4, align 8
  %9 = getelementptr inbounds %struct.Vec_Int_t_, ptr %8, i32 0, i32 2
  %10 = load ptr, ptr %9, align 8
  %11 = load i32, ptr %5, align 4
  %12 = sext i32 %11 to i64
  %13 = getelementptr inbounds i32, ptr %10, i64 %12
  store i32 %7, ptr %13, align 4
  ret void
}

; Function Attrs: nounwind uwtable
define internal i32 @Abc_MaxInt(i32 noundef %0, i32 noundef %1) #0 {
  %3 = alloca i32, align 4
  %4 = alloca i32, align 4
  store i32 %0, ptr %3, align 4
  store i32 %1, ptr %4, align 4
  %5 = load i32, ptr %3, align 4
  %6 = load i32, ptr %4, align 4
  %7 = icmp sgt i32 %5, %6
  br i1 %7, label %8, label %10

8:                                                ; preds = %2
  %9 = load i32, ptr %3, align 4
  br label %12

10:                                               ; preds = %2
  %11 = load i32, ptr %4, align 4
  br label %12

12:                                               ; preds = %10, %8
  %13 = phi i32 [ %9, %8 ], [ %11, %10 ]
  ret i32 %13
}

; Function Attrs: nounwind uwtable
define internal i32 @Wlc_ObjLevelId(ptr noundef %0, i32 noundef %1) #0 {
  %3 = alloca ptr, align 8
  %4 = alloca i32, align 4
  store ptr %0, ptr %3, align 8
  store i32 %1, ptr %4, align 4
  %5 = load ptr, ptr %3, align 8
  %6 = getelementptr inbounds %struct.Wlc_Ntk_t_, ptr %5, i32 0, i32 32
  %7 = load i32, ptr %4, align 4
  %8 = call i32 @Vec_IntEntry(ptr noundef %6, i32 noundef %7)
  ret i32 %8
}

; Function Attrs: nounwind uwtable
define internal ptr @Wlc_NtkObj(ptr noundef %0, i32 noundef %1) #0 {
  %3 = alloca ptr, align 8
  %4 = alloca i32, align 4
  store ptr %0, ptr %3, align 8
  store i32 %1, ptr %4, align 4
  %5 = load ptr, ptr %3, align 8
  %6 = getelementptr inbounds %struct.Wlc_Ntk_t_, ptr %5, i32 0, i32 18
  %7 = load ptr, ptr %6, align 8
  %8 = load i32, ptr %4, align 4
  %9 = sext i32 %8 to i64
  %10 = getelementptr inbounds %struct.Wlc_Obj_t_, ptr %7, i64 %9
  ret ptr %10
}

; Function Attrs: nounwind uwtable
define internal i32 @Wlc_ObjFaninId(ptr noundef %0, i32 noundef %1) #0 {
  %3 = alloca ptr, align 8
  %4 = alloca i32, align 4
  store ptr %0, ptr %3, align 8
  store i32 %1, ptr %4, align 4
  %5 = load ptr, ptr %3, align 8
  %6 = call ptr @Wlc_ObjFanins(ptr noundef %5)
  %7 = load i32, ptr %4, align 4
  %8 = sext i32 %7 to i64
  %9 = getelementptr inbounds i32, ptr %6, i64 %8
  %10 = load i32, ptr %9, align 4
  ret i32 %10
}

; Function Attrs: nounwind uwtable
define internal i32 @Wlc_ObjLevel(ptr noundef %0, ptr noundef %1) #0 {
  %3 = alloca ptr, align 8
  %4 = alloca ptr, align 8
  store ptr %0, ptr %3, align 8
  store ptr %1, ptr %4, align 8
  %5 = load ptr, ptr %3, align 8
  %6 = load ptr, ptr %3, align 8
  %7 = load ptr, ptr %4, align 8
  %8 = call i32 @Wlc_ObjId(ptr noundef %6, ptr noundef %7)
  %9 = call i32 @Wlc_ObjLevelId(ptr noundef %5, i32 noundef %8)
  ret i32 %9
}

; Function Attrs: nounwind uwtable
define internal i32 @Wlc_ObjFaninNum(ptr noundef %0) #0 {
  %2 = alloca ptr, align 8
  store ptr %0, ptr %2, align 8
  %3 = load ptr, ptr %2, align 8
  %4 = getelementptr inbounds %struct.Wlc_Obj_t_, ptr %3, i32 0, i32 1
  %5 = load i32, ptr %4, align 4
  ret i32 %5
}

; Function Attrs: nounwind uwtable
define internal i32 @Wlc_ObjIsFf(ptr noundef %0, i32 noundef %1) #0 {
  %3 = alloca ptr, align 8
  %4 = alloca i32, align 4
  store ptr %0, ptr %3, align 8
  store i32 %1, ptr %4, align 4
  %5 = load ptr, ptr %3, align 8
  %6 = load i32, ptr %4, align 4
  %7 = call ptr @Wlc_NtkObj(ptr noundef %5, i32 noundef %6)
  %8 = load i16, ptr %7, align 8
  %9 = and i16 %8, 63
  %10 = zext i16 %9 to i32
  %11 = icmp eq i32 %10, 5
  %12 = zext i1 %11 to i32
  ret i32 %12
}

; Function Attrs: nounwind uwtable
define internal i32 @Wlc_ObjIsCi(ptr noundef %0) #0 {
  %2 = alloca ptr, align 8
  store ptr %0, ptr %2, align 8
  %3 = load ptr, ptr %2, align 8
  %4 = load i16, ptr %3, align 8
  %5 = and i16 %4, 63
  %6 = zext i16 %5 to i32
  %7 = icmp eq i32 %6, 1
  br i1 %7, label %14, label %8

8:                                                ; preds = %1
  %9 = load ptr, ptr %2, align 8
  %10 = load i16, ptr %9, align 8
  %11 = and i16 %10, 63
  %12 = zext i16 %11 to i32
  %13 = icmp eq i32 %12, 3
  br label %14

14:                                               ; preds = %8, %1
  %15 = phi i1 [ true, %1 ], [ %13, %8 ]
  %16 = zext i1 %15 to i32
  ret i32 %16
}

; Function Attrs: nounwind uwtable
define internal i32 @Wlc_ObjId(ptr noundef %0, ptr noundef %1) #0 {
  %3 = alloca ptr, align 8
  %4 = alloca ptr, align 8
  store ptr %0, ptr %3, align 8
  store ptr %1, ptr %4, align 8
  %5 = load ptr, ptr %4, align 8
  %6 = load ptr, ptr %3, align 8
  %7 = getelementptr inbounds %struct.Wlc_Ntk_t_, ptr %6, i32 0, i32 18
  %8 = load ptr, ptr %7, align 8
  %9 = ptrtoint ptr %5 to i64
  %10 = ptrtoint ptr %8 to i64
  %11 = sub i64 %9, %10
  %12 = sdiv exact i64 %11, 24
  %13 = trunc i64 %12 to i32
  ret i32 %13
}

; Function Attrs: nounwind uwtable
define void @Wlc_NtkCreateLevels_rec(ptr noundef %0, ptr noundef %1) #0 {
  %3 = alloca ptr, align 8
  %4 = alloca ptr, align 8
  %5 = alloca i32, align 4
  %6 = alloca i32, align 4
  %7 = alloca i32, align 4
  %8 = alloca i32, align 4
  store ptr %0, ptr %3, align 8
  store ptr %1, ptr %4, align 8
  store i32 0, ptr %7, align 4
  %9 = load ptr, ptr %3, align 8
  %10 = load ptr, ptr %4, align 8
  %11 = call i32 @Wlc_ObjId(ptr noundef %9, ptr noundef %10)
  store i32 %11, ptr %8, align 4
  %12 = load ptr, ptr %4, align 8
  %13 = call i32 @Wlc_ObjIsCi(ptr noundef %12)
  %14 = icmp ne i32 %13, 0
  br i1 %14, label %29, label %15

15:                                               ; preds = %2
  %16 = load ptr, ptr %3, align 8
  %17 = load i32, ptr %8, align 4
  %18 = call i32 @Wlc_ObjIsFf(ptr noundef %16, i32 noundef %17)
  %19 = icmp ne i32 %18, 0
  br i1 %19, label %29, label %20

20:                                               ; preds = %15
  %21 = load ptr, ptr %4, align 8
  %22 = call i32 @Wlc_ObjFaninNum(ptr noundef %21)
  %23 = icmp eq i32 %22, 0
  br i1 %23, label %29, label %24

24:                                               ; preds = %20
  %25 = load ptr, ptr %3, align 8
  %26 = load ptr, ptr %4, align 8
  %27 = call i32 @Wlc_ObjLevel(ptr noundef %25, ptr noundef %26)
  %28 = icmp sgt i32 %27, 0
  br i1 %28, label %29, label %30

29:                                               ; preds = %24, %20, %15, %2
  br label %87

30:                                               ; preds = %24
  store i32 0, ptr %5, align 4
  br label %31

31:                                               ; preds = %51, %30
  %32 = load i32, ptr %5, align 4
  %33 = load ptr, ptr %4, align 8
  %34 = call i32 @Wlc_ObjFaninNum(ptr noundef %33)
  %35 = icmp slt i32 %32, %34
  br i1 %35, label %36, label %40

36:                                               ; preds = %31
  %37 = load ptr, ptr %4, align 8
  %38 = load i32, ptr %5, align 4
  %39 = call i32 @Wlc_ObjFaninId(ptr noundef %37, i32 noundef %38)
  store i32 %39, ptr %6, align 4
  br label %40

40:                                               ; preds = %36, %31
  %41 = phi i1 [ false, %31 ], [ true, %36 ]
  br i1 %41, label %42, label %54

42:                                               ; preds = %40
  %43 = load i32, ptr %6, align 4
  %44 = icmp ne i32 %43, 0
  br i1 %44, label %45, label %50

45:                                               ; preds = %42
  %46 = load ptr, ptr %3, align 8
  %47 = load ptr, ptr %3, align 8
  %48 = load i32, ptr %6, align 4
  %49 = call ptr @Wlc_NtkObj(ptr noundef %47, i32 noundef %48)
  call void @Wlc_NtkCreateLevels_rec(ptr noundef %46, ptr noundef %49)
  br label %50

50:                                               ; preds = %45, %42
  br label %51

51:                                               ; preds = %50
  %52 = load i32, ptr %5, align 4
  %53 = add nsw i32 %52, 1
  store i32 %53, ptr %5, align 4
  br label %31, !llvm.loop !14

54:                                               ; preds = %40
  store i32 0, ptr %5, align 4
  br label %55

55:                                               ; preds = %76, %54
  %56 = load i32, ptr %5, align 4
  %57 = load ptr, ptr %4, align 8
  %58 = call i32 @Wlc_ObjFaninNum(ptr noundef %57)
  %59 = icmp slt i32 %56, %58
  br i1 %59, label %60, label %64

60:                                               ; preds = %55
  %61 = load ptr, ptr %4, align 8
  %62 = load i32, ptr %5, align 4
  %63 = call i32 @Wlc_ObjFaninId(ptr noundef %61, i32 noundef %62)
  store i32 %63, ptr %6, align 4
  br label %64

64:                                               ; preds = %60, %55
  %65 = phi i1 [ false, %55 ], [ true, %60 ]
  br i1 %65, label %66, label %79

66:                                               ; preds = %64
  %67 = load i32, ptr %6, align 4
  %68 = icmp ne i32 %67, 0
  br i1 %68, label %69, label %75

69:                                               ; preds = %66
  %70 = load i32, ptr %7, align 4
  %71 = load ptr, ptr %3, align 8
  %72 = load i32, ptr %6, align 4
  %73 = call i32 @Wlc_ObjLevelId(ptr noundef %71, i32 noundef %72)
  %74 = call i32 @Abc_MaxInt(i32 noundef %70, i32 noundef %73)
  store i32 %74, ptr %7, align 4
  br label %75

75:                                               ; preds = %69, %66
  br label %76

76:                                               ; preds = %75
  %77 = load i32, ptr %5, align 4
  %78 = add nsw i32 %77, 1
  store i32 %78, ptr %5, align 4
  br label %55, !llvm.loop !15

79:                                               ; preds = %64
  %80 = load ptr, ptr %3, align 8
  %81 = getelementptr inbounds %struct.Wlc_Ntk_t_, ptr %80, i32 0, i32 32
  %82 = load ptr, ptr %3, align 8
  %83 = load ptr, ptr %4, align 8
  %84 = call i32 @Wlc_ObjId(ptr noundef %82, ptr noundef %83)
  %85 = load i32, ptr %7, align 4
  %86 = add nsw i32 %85, 1
  call void @Vec_IntWriteEntry(ptr noundef %81, i32 noundef %84, i32 noundef %86)
  br label %87

87:                                               ; preds = %79, %29
  ret void
}