; Function Attrs: nofree nosync nounwind memory(readwrite, inaccessiblemem: none) uwtable
define void @Wlc_NtkCreateLevels_rec(ptr noundef readonly captures(none) %0, ptr noundef %1) local_unnamed_addr #13 {
  %3 = getelementptr i8, ptr %0, i64 640
  %4 = ptrtoint ptr %1 to i64
  %.val40 = load i16, ptr %1, align 8
  %5 = and i16 %.val40, 61
  %narrow.i.not = icmp eq i16 %5, 1
  br i1 %narrow.i.not, label %74, label %6

6:                                                ; preds = %2
  %.val38 = load ptr, ptr %3, align 8
  %7 = ptrtoint ptr %.val38 to i64
  %8 = sub i64 %4, %7
  %9 = sdiv exact i64 %8, 24
  %sext = shl i64 %9, 32
  %10 = ashr exact i64 %sext, 32
  %11 = getelementptr inbounds %struct.Wlc_Obj_t_, ptr %.val38, i64 %10
  %12 = load i16, ptr %11, align 8
  %13 = and i16 %12, 63
  %.not = icmp eq i16 %13, 5
  br i1 %.not, label %74, label %14

14:                                               ; preds = %6
  %15 = getelementptr i8, ptr %1, i64 4
  %.val43 = load i32, ptr %15, align 4
  %16 = icmp eq i32 %.val43, 0
  br i1 %16, label %74, label %17

17:                                               ; preds = %14
  %18 = getelementptr i8, ptr %0, i64 792
  %.val47 = load ptr, ptr %18, align 8
  %19 = ashr exact i64 %sext, 30
  %20 = getelementptr inbounds i8, ptr %.val47, i64 %19
  %21 = load i32, ptr %20, align 4
  %22 = icmp sgt i32 %21, 0
  br i1 %22, label %74, label %.preheader

.preheader:                                       ; preds = %17
  %23 = icmp sgt i32 %.val43, 0
  br i1 %23, label %.lr.ph, label %.critedge2

.lr.ph:                                           ; preds = %.preheader
  %24 = getelementptr inbounds nuw i8, ptr %1, i64 16
  br label %46

.critedge.preheader:                              ; preds = %58
  %25 = icmp sgt i32 %.val42, 0
  br i1 %25, label %.lr.ph57, label %.critedge2

.lr.ph57:                                         ; preds = %.critedge.preheader
  %26 = icmp samesign ugt i32 %.val42, 2
  %27 = getelementptr inbounds nuw i8, ptr %1, i64 16
  br i1 %26, label %.lr.ph57.split.us, label %.lr.ph57.split

.lr.ph57.split.us:                                ; preds = %.lr.ph57
  %28 = load ptr, ptr %27, align 8
  %wide.trip.count84 = zext nneg i32 %.val42 to i64
  br label %Wlc_ObjHasArray.exit.thread.i.i49.us

Wlc_ObjHasArray.exit.thread.i.i49.us:             ; preds = %.critedge.us, %.lr.ph57.split.us
  %indvars.iv81 = phi i64 [ %indvars.iv.next82, %.critedge.us ], [ 0, %.lr.ph57.split.us ]
  %.03155.us = phi i32 [ %.132.us, %.critedge.us ], [ 0, %.lr.ph57.split.us ]
  %29 = getelementptr inbounds nuw i32, ptr %28, i64 %indvars.iv81
  %30 = load i32, ptr %29, align 4
  %.not36.us = icmp eq i32 %30, 0
  br i1 %.not36.us, label %.critedge.us, label %31

31:                                               ; preds = %Wlc_ObjHasArray.exit.thread.i.i49.us
  %.val44.us = load ptr, ptr %18, align 8
  %32 = sext i32 %30 to i64
  %33 = getelementptr inbounds i32, ptr %.val44.us, i64 %32
  %34 = load i32, ptr %33, align 4
  %35 = tail call noundef i32 @llvm.smax.i32(i32 %.03155.us, i32 %34)
  br label %.critedge.us

.critedge.us:                                     ; preds = %31, %Wlc_ObjHasArray.exit.thread.i.i49.us
  %.132.us = phi i32 [ %35, %31 ], [ %.03155.us, %Wlc_ObjHasArray.exit.thread.i.i49.us ]
  %indvars.iv.next82 = add nuw nsw i64 %indvars.iv81, 1
  %exitcond85.not = icmp eq i64 %indvars.iv.next82, %wide.trip.count84
  br i1 %exitcond85.not, label %.critedge2, label %Wlc_ObjHasArray.exit.thread.i.i49.us, !llvm.loop !14

.lr.ph57.split:                                   ; preds = %.lr.ph57
  %36 = load i16, ptr %1, align 8
  %37 = and i16 %36, 63
  switch i16 %37, label %Wlc_ObjFaninId.exit50.preheader [
    i16 6, label %.lr.ph57.split.split.us
    i16 22, label %.lr.ph57.split.split.us
  ]

Wlc_ObjFaninId.exit50.preheader:                  ; preds = %.lr.ph57.split
  %wide.trip.count79 = zext nneg i32 %.val42 to i64
  br label %Wlc_ObjFaninId.exit50

.lr.ph57.split.split.us:                          ; preds = %.lr.ph57.split, %.lr.ph57.split
  %38 = load ptr, ptr %27, align 8
  %wide.trip.count = zext nneg i32 %.val42 to i64
  br label %Wlc_ObjHasArray.exit.thread.i.i49.us61

Wlc_ObjHasArray.exit.thread.i.i49.us61:           ; preds = %.critedge.us65, %.lr.ph57.split.split.us
  %indvars.iv73 = phi i64 [ %indvars.iv.next74, %.critedge.us65 ], [ 0, %.lr.ph57.split.split.us ]
  %.03155.us60 = phi i32 [ %.132.us66, %.critedge.us65 ], [ 0, %.lr.ph57.split.split.us ]
  %39 = getelementptr inbounds nuw i32, ptr %38, i64 %indvars.iv73
  %40 = load i32, ptr %39, align 4
  %.not36.us63 = icmp eq i32 %40, 0
  br i1 %.not36.us63, label %.critedge.us65, label %41

41:                                               ; preds = %Wlc_ObjHasArray.exit.thread.i.i49.us61
  %.val44.us64 = load ptr, ptr %18, align 8
  %42 = sext i32 %40 to i64
  %43 = getelementptr inbounds i32, ptr %.val44.us64, i64 %42
  %44 = load i32, ptr %43, align 4
  %45 = tail call noundef i32 @llvm.smax.i32(i32 %.03155.us60, i32 %44)
  br label %.critedge.us65

.critedge.us65:                                   ; preds = %41, %Wlc_ObjHasArray.exit.thread.i.i49.us61
  %.132.us66 = phi i32 [ %45, %41 ], [ %.03155.us60, %Wlc_ObjHasArray.exit.thread.i.i49.us61 ]
  %indvars.iv.next74 = add nuw nsw i64 %indvars.iv73, 1
  %exitcond.not = icmp eq i64 %indvars.iv.next74, %wide.trip.count
  br i1 %exitcond.not, label %.critedge2, label %Wlc_ObjHasArray.exit.thread.i.i49.us61, !llvm.loop !14

46:                                               ; preds = %.lr.ph, %58
  %.val4286 = phi i32 [ %.val43, %.lr.ph ], [ %.val42, %58 ]
  %indvars.iv = phi i64 [ 0, %.lr.ph ], [ %indvars.iv.next, %58 ]
  %47 = icmp ugt i32 %.val4286, 2
  br i1 %47, label %Wlc_ObjHasArray.exit.thread.i.i, label %48

48:                                               ; preds = %46
  %49 = load i16, ptr %1, align 8
  %50 = and i16 %49, 63
  switch i16 %50, label %Wlc_ObjFaninId.exit [
    i16 6, label %Wlc_ObjHasArray.exit.thread.i.i
    i16 22, label %Wlc_ObjHasArray.exit.thread.i.i
  ]

Wlc_ObjHasArray.exit.thread.i.i:                  ; preds = %48, %48, %46
  %51 = load ptr, ptr %24, align 8
  br label %Wlc_ObjFaninId.exit

Wlc_ObjFaninId.exit:                              ; preds = %48, %Wlc_ObjHasArray.exit.thread.i.i
  %52 = phi ptr [ %51, %Wlc_ObjHasArray.exit.thread.i.i ], [ %24, %48 ]
  %53 = getelementptr inbounds nuw i32, ptr %52, i64 %indvars.iv
  %54 = load i32, ptr %53, align 4
  %.not37 = icmp eq i32 %54, 0
  br i1 %.not37, label %58, label %55

55:                                               ; preds = %Wlc_ObjFaninId.exit
  %.val39 = load ptr, ptr %3, align 8
  %56 = sext i32 %54 to i64
  %57 = getelementptr inbounds %struct.Wlc_Obj_t_, ptr %.val39, i64 %56
  tail call void @Wlc_NtkCreateLevels_rec(ptr noundef %0, ptr noundef nonnull %57)
  %.val42.pre = load i32, ptr %15, align 4
  br label %58

58:                                               ; preds = %Wlc_ObjFaninId.exit, %55
  %.val42 = phi i32 [ %.val4286, %Wlc_ObjFaninId.exit ], [ %.val42.pre, %55 ]
  %indvars.iv.next = add nuw nsw i64 %indvars.iv, 1
  %59 = sext i32 %.val42 to i64
  %60 = icmp slt i64 %indvars.iv.next, %59
  br i1 %60, label %46, label %.critedge.preheader, !llvm.loop !15

Wlc_ObjFaninId.exit50:                            ; preds = %Wlc_ObjFaninId.exit50.preheader, %.critedge
  %indvars.iv76 = phi i64 [ 0, %Wlc_ObjFaninId.exit50.preheader ], [ %indvars.iv.next77, %.critedge ]
  %.03155 = phi i32 [ 0, %Wlc_ObjFaninId.exit50.preheader ], [ %.132, %.critedge ]
  %61 = getelementptr inbounds nuw i32, ptr %27, i64 %indvars.iv76
  %62 = load i32, ptr %61, align 4
  %.not36 = icmp eq i32 %62, 0
  br i1 %.not36, label %.critedge, label %63

63:                                               ; preds = %Wlc_ObjFaninId.exit50
  %.val44 = load ptr, ptr %18, align 8
  %64 = sext i32 %62 to i64
  %65 = getelementptr inbounds i32, ptr %.val44, i64 %64
  %66 = load i32, ptr %65, align 4
  %67 = tail call noundef i32 @llvm.smax.i32(i32 %.03155, i32 %66)
  br label %.critedge

.critedge:                                        ; preds = %Wlc_ObjFaninId.exit50, %63
  %.132 = phi i32 [ %67, %63 ], [ %.03155, %Wlc_ObjFaninId.exit50 ]
  %indvars.iv.next77 = add nuw nsw i64 %indvars.iv76, 1
  %exitcond80.not = icmp eq i64 %indvars.iv.next77, %wide.trip.count79
  br i1 %exitcond80.not, label %.critedge2, label %Wlc_ObjFaninId.exit50, !llvm.loop !14

.critedge2:                                       ; preds = %.critedge.us65, %.critedge, %.critedge.us, %.preheader, %.critedge.preheader
  %.031.lcssa = phi i32 [ 0, %.critedge.preheader ], [ 0, %.preheader ], [ %.132.us, %.critedge.us ], [ %.132, %.critedge ], [ %.132.us66, %.critedge.us65 ]
  %.val = load ptr, ptr %3, align 8
  %68 = ptrtoint ptr %.val to i64
  %69 = sub i64 %4, %68
  %70 = sdiv exact i64 %69, 24
  %71 = add nuw nsw i32 %.031.lcssa, 1
  %.val45 = load ptr, ptr %18, align 8
  %sext51 = shl i64 %70, 32
  %72 = ashr exact i64 %sext51, 30
  %73 = getelementptr inbounds i8, ptr %.val45, i64 %72
  store i32 %71, ptr %73, align 4
  br label %74

74:                                               ; preds = %2, %6, %14, %17, %.critedge2
  ret void
}